; Function Attrs: mustprogress uwtable
define void @_ZN17grpc_event_engine12experimental15PollEventHandle13NotifyOnErrorEPNS0_18PosixEngineClosureE(ptr nocapture noundef nonnull readonly align 16 dereferenceable(200) %this, ptr noundef %on_error) unnamed_addr #4 align 2 personality ptr @__gxx_personality_v0 {
entry:
  %agg.tmp = alloca %"class.absl::lts_20230802::Status", align 8
  call void @_ZN4absl12lts_202308026StatusC1ENS0_10StatusCodeESt17basic_string_viewIcSt11char_traitsIcEE(ptr noundef nonnull align 8 dereferenceable(8) %agg.tmp, i32 noundef 1, i64 47, ptr nonnull @.str.5)
  %status_.i = getelementptr inbounds i8, ptr %on_error, i64 56
  %0 = load i64, ptr %status_.i, align 8
  %1 = load i64, ptr %agg.tmp, align 8
  %cmp.not.i.i = icmp eq i64 %1, %0
  br i1 %cmp.not.i.i, label %invoke.cont, label %if.then.i.i

if.then.i.i:                                      ; preds = %entry
  %and.i.i.i.i = and i64 %1, 1
  %cmp.i.i.i.i = icmp eq i64 %and.i.i.i.i, 0
  br i1 %cmp.i.i.i.i, label %_ZN4absl12lts_202308026Status3RefEm.exit.i.i, label %if.then.i.i.i

if.then.i.i.i:                                    ; preds = %if.then.i.i
  %sub.i.i.i.i = add nsw i64 %1, -1
  %2 = inttoptr i64 %sub.i.i.i.i to ptr
  %3 = atomicrmw add ptr %2, i32 1 monotonic, align 4
  %.pre.i.i = load i64, ptr %agg.tmp, align 8
  br label %_ZN4absl12lts_202308026Status3RefEm.exit.i.i

_ZN4absl12lts_202308026Status3RefEm.exit.i.i:     ; preds = %if.then.i.i.i, %if.then.i.i
  %4 = phi i64 [ %1, %if.then.i.i ], [ %.pre.i.i, %if.then.i.i.i ]
  store i64 %4, ptr %status_.i, align 8
  %and.i.i5.i.i = and i64 %0, 1
  %cmp.i.i6.i.i = icmp eq i64 %and.i.i5.i.i, 0
  br i1 %cmp.i.i6.i.i, label %invoke.cont, label %if.then.i7.i.i

if.then.i7.i.i:                                   ; preds = %_ZN4absl12lts_202308026Status3RefEm.exit.i.i
  invoke void @_ZN4absl12lts_202308026Status15UnrefNonInlinedEm(i64 noundef %0)
          to label %if.then.i7.i.i.invoke.cont_crit_edge unwind label %lpad

if.then.i7.i.i.invoke.cont_crit_edge:             ; preds = %if.then.i7.i.i
  %.pre = load i64, ptr %agg.tmp, align 8
  br label %invoke.cont

invoke.cont:                                      ; preds = %if.then.i7.i.i.invoke.cont_crit_edge, %_ZN4absl12lts_202308026Status3RefEm.exit.i.i, %entry
  %5 = phi i64 [ %.pre, %if.then.i7.i.i.invoke.cont_crit_edge ], [ %4, %_ZN4absl12lts_202308026Status3RefEm.exit.i.i ], [ %0, %entry ]
  %and.i.i.i = and i64 %5, 1
  %cmp.i.i.i = icmp eq i64 %and.i.i.i, 0
  br i1 %cmp.i.i.i, label %_ZN4absl12lts_202308026StatusD2Ev.exit, label %if.then.i.i2

if.then.i.i2:                                     ; preds = %invoke.cont
  invoke void @_ZN4absl12lts_202308026Status15UnrefNonInlinedEm(i64 noundef %5)
          to label %_ZN4absl12lts_202308026StatusD2Ev.exit unwind label %terminate.lpad.i

terminate.lpad.i:                                 ; preds = %if.then.i.i2
  %6 = landingpad { ptr, i32 }
          catch ptr null
  %7 = extractvalue { ptr, i32 } %6, 0
  call void @__clang_call_terminate(ptr %7) #24
  unreachable

_ZN4absl12lts_202308026StatusD2Ev.exit:           ; preds = %invoke.cont, %if.then.i.i2
  %scheduler_ = getelementptr inbounds i8, ptr %this, i64 80
  %8 = load ptr, ptr %scheduler_, align 16
  %vtable = load ptr, ptr %8, align 8
  %9 = load ptr, ptr %vtable, align 8
  call void %9(ptr noundef nonnull align 8 dereferenceable(8) %8, ptr noundef nonnull %on_error)
  ret void

lpad:                                             ; preds = %if.then.i7.i.i
  %10 = landingpad { ptr, i32 }
          cleanup
  call void @_ZN4absl12lts_202308026StatusD2Ev(ptr noundef nonnull align 8 dereferenceable(8) %agg.tmp) #22
  resume { ptr, i32 } %10
}